target datalayout = "e-m:e-p270:32:32-p271:32:32-p272:64:64-i64:64-i128:128-f80:128-n8:16:32:64-S128"
target triple = "x86_64-pc-linux-gnu"

%"class.std::__shared_count" = type { ptr }
%"class.OpenColorIO_v2_5dev::LogOpData" = type <{ %"class.OpenColorIO_v2_5dev::OpData", %"class.std::vector.11", %"class.std::vector.11", %"class.std::vector.11", double, i32, [4 x i8] }>
%"class.OpenColorIO_v2_5dev::OpData" = type { ptr, %"class.std::mutex", %"class.OpenColorIO_v2_5dev::FormatMetadataImpl" }
%"class.std::mutex" = type { %"class.std::__mutex_base" }
%"class.std::__mutex_base" = type { %union.pthread_mutex_t }
%union.pthread_mutex_t = type { %struct.__pthread_mutex_s }
%struct.__pthread_mutex_s = type { i32, i32, i32, i32, i32, i16, i16, %struct.__pthread_internal_list }
%struct.__pthread_internal_list = type { ptr, ptr }
%"class.OpenColorIO_v2_5dev::FormatMetadataImpl" = type { %"class.OpenColorIO_v2_5dev::FormatMetadata", %"class.std::__cxx11::basic_string", %"class.std::__cxx11::basic_string", %"class.std::vector", %"class.std::vector.6" }
%"class.OpenColorIO_v2_5dev::FormatMetadata" = type { ptr }
%"class.std::__cxx11::basic_string" = type { %"struct.std::__cxx11::basic_string<char>::_Alloc_hider", i64, %union.anon }
%"struct.std::__cxx11::basic_string<char>::_Alloc_hider" = type { ptr }
%union.anon = type { i64, [8 x i8] }
%"class.std::vector" = type { %"struct.std::_Vector_base" }
%"struct.std::_Vector_base" = type { %"struct.std::_Vector_base<std::pair<std::__cxx11::basic_string<char>, std::__cxx11::basic_string<char>>, std::allocator<std::pair<std::__cxx11::basic_string<char>, std::__cxx11::basic_string<char>>>>::_Vector_impl" }
%"struct.std::_Vector_base<std::pair<std::__cxx11::basic_string<char>, std::__cxx11::basic_string<char>>, std::allocator<std::pair<std::__cxx11::basic_string<char>, std::__cxx11::basic_string<char>>>>::_Vector_impl" = type { %"struct.std::_Vector_base<std::pair<std::__cxx11::basic_string<char>, std::__cxx11::basic_string<char>>, std::allocator<std::pair<std::__cxx11::basic_string<char>, std::__cxx11::basic_string<char>>>>::_Vector_impl_data" }
%"struct.std::_Vector_base<std::pair<std::__cxx11::basic_string<char>, std::__cxx11::basic_string<char>>, std::allocator<std::pair<std::__cxx11::basic_string<char>, std::__cxx11::basic_string<char>>>>::_Vector_impl_data" = type { ptr, ptr, ptr }
%"class.std::vector.6" = type { %"struct.std::_Vector_base.7" }
%"struct.std::_Vector_base.7" = type { %"struct.std::_Vector_base<OpenColorIO_v2_5dev::FormatMetadataImpl, std::allocator<OpenColorIO_v2_5dev::FormatMetadataImpl>>::_Vector_impl" }
%"struct.std::_Vector_base<OpenColorIO_v2_5dev::FormatMetadataImpl, std::allocator<OpenColorIO_v2_5dev::FormatMetadataImpl>>::_Vector_impl" = type { %"struct.std::_Vector_base<OpenColorIO_v2_5dev::FormatMetadataImpl, std::allocator<OpenColorIO_v2_5dev::FormatMetadataImpl>>::_Vector_impl_data" }
%"struct.std::_Vector_base<OpenColorIO_v2_5dev::FormatMetadataImpl, std::allocator<OpenColorIO_v2_5dev::FormatMetadataImpl>>::_Vector_impl_data" = type { ptr, ptr, ptr }
%"class.std::vector.11" = type { %"struct.std::_Vector_base.12" }
%"struct.std::_Vector_base.12" = type { %"struct.std::_Vector_base<double, std::allocator<double>>::_Vector_impl" }
%"struct.std::_Vector_base<double, std::allocator<double>>::_Vector_impl" = type { %"struct.std::_Vector_base<double, std::allocator<double>>::_Vector_impl_data" }
%"struct.std::_Vector_base<double, std::allocator<double>>::_Vector_impl_data" = type { ptr, ptr, ptr }
%"class.OpenColorIO_v2_5dev::L2LBaseRenderer" = type { %"class.OpenColorIO_v2_5dev::LogOpCPU", float, %"class.std::vector.11", %"class.std::vector.11", %"class.std::vector.11" }
%"class.OpenColorIO_v2_5dev::LogOpCPU" = type { %"class.OpenColorIO_v2_5dev::OpCPU" }
%"class.OpenColorIO_v2_5dev::OpCPU" = type { ptr }
%"class.OpenColorIO_v2_5dev::CameraL2LBaseRenderer" = type { %"class.OpenColorIO_v2_5dev::L2LBaseRenderer", [3 x float], [3 x float], [3 x float], float }
%"class.std::__shared_ptr.1" = type { ptr, %"class.std::__shared_count" }

; Function Attrs: mustprogress nounwind uwtable
define linkonce_odr hidden noundef ptr @_ZNKSt12__shared_ptrIKN19OpenColorIO_v2_5dev9LogOpDataELN9__gnu_cxx12_Lock_policyE2EE3getEv(ptr noundef nonnull align 8 dereferenceable(16) %0) #6 comdat align 2 {
  %2 = alloca ptr, align 8
  store ptr %0, ptr %2, align 8, !tbaa !209
  %3 = load ptr, ptr %2, align 8
  %4 = getelementptr inbounds nuw %"class.std::__shared_ptr.1", ptr %3, i32 0, i32 0
  %5 = load ptr, ptr %4, align 8, !tbaa !211
  ret ptr %5
}

; Function Attrs: mustprogress nounwind uwtable
define linkonce_odr hidden noundef ptr @_ZNKSt19__shared_ptr_accessIKN19OpenColorIO_v2_5dev9LogOpDataELN9__gnu_cxx12_Lock_policyE2ELb0ELb0EE6_M_getEv(ptr noundef nonnull align 1 dereferenceable(1) %0) #6 comdat align 2 {
  %2 = alloca ptr, align 8
  store ptr %0, ptr %2, align 8, !tbaa !16
  %3 = load ptr, ptr %2, align 8
  %4 = call noundef ptr @_ZNKSt12__shared_ptrIKN19OpenColorIO_v2_5dev9LogOpDataELN9__gnu_cxx12_Lock_policyE2EE3getEv(ptr noundef nonnull align 8 dereferenceable(16) %3) #3
  ret ptr %4
}

; Function Attrs: inlinehint mustprogress nounwind uwtable
define linkonce_odr hidden noundef nonnull align 8 dereferenceable(24) ptr @_ZNK19OpenColorIO_v2_5dev9LogOpData13getBlueParamsEv(ptr noundef nonnull align 8 dereferenceable(252) %0) #9 comdat align 2 {
  %2 = alloca ptr, align 8
  store ptr %0, ptr %2, align 8, !tbaa !18
  %3 = load ptr, ptr %2, align 8
  %4 = getelementptr inbounds nuw %"class.OpenColorIO_v2_5dev::LogOpData", ptr %3, i32 0, i32 3
  ret ptr %4
}

; Function Attrs: inlinehint mustprogress nounwind uwtable
define linkonce_odr hidden noundef nonnull align 8 dereferenceable(24) ptr @_ZNK19OpenColorIO_v2_5dev9LogOpData14getGreenParamsEv(ptr noundef nonnull align 8 dereferenceable(252) %0) #9 comdat align 2 {
  %2 = alloca ptr, align 8
  store ptr %0, ptr %2, align 8, !tbaa !18
  %3 = load ptr, ptr %2, align 8
  %4 = getelementptr inbounds nuw %"class.OpenColorIO_v2_5dev::LogOpData", ptr %3, i32 0, i32 2
  ret ptr %4
}

; Function Attrs: inlinehint mustprogress nounwind uwtable
define linkonce_odr hidden noundef nonnull align 8 dereferenceable(24) ptr @_ZNK19OpenColorIO_v2_5dev9LogOpData12getRedParamsEv(ptr noundef nonnull align 8 dereferenceable(252) %0) #9 comdat align 2 {
  %2 = alloca ptr, align 8
  store ptr %0, ptr %2, align 8, !tbaa !18
  %3 = load ptr, ptr %2, align 8
  %4 = getelementptr inbounds nuw %"class.OpenColorIO_v2_5dev::LogOpData", ptr %3, i32 0, i32 1
  ret ptr %4
}

; Function Attrs: mustprogress nounwind uwtable
define linkonce_odr hidden noundef ptr @_ZNKSt19__shared_ptr_accessIKN19OpenColorIO_v2_5dev9LogOpDataELN9__gnu_cxx12_Lock_policyE2ELb0ELb0EEptEv(ptr noundef nonnull align 1 dereferenceable(1) %0) #6 comdat align 2 {
  %2 = alloca ptr, align 8
  store ptr %0, ptr %2, align 8, !tbaa !16
  %3 = load ptr, ptr %2, align 8
  %4 = call noundef ptr @_ZNKSt19__shared_ptr_accessIKN19OpenColorIO_v2_5dev9LogOpDataELN9__gnu_cxx12_Lock_policyE2ELb0ELb0EE6_M_getEv(ptr noundef nonnull align 1 dereferenceable(1) %3) #3
  ret ptr %4
}

; Function Attrs: mustprogress nounwind uwtable
define hidden void @_ZN19OpenColorIO_v2_5dev8LogOpCPU10updateDataERSt10shared_ptrIKNS_9LogOpDataEE(ptr noundef nonnull align 8 dereferenceable(8) %0, ptr noundef nonnull align 8 dereferenceable(16) %1) unnamed_addr #6 align 2 {
  %3 = alloca ptr, align 8
  %4 = alloca ptr, align 8
  store ptr %0, ptr %3, align 8, !tbaa !101
  store ptr %1, ptr %4, align 8, !tbaa !3
  ret void
}

; Function Attrs: mustprogress nounwind uwtable
define linkonce_odr noundef float @_ZSt4log2f(float noundef %0) #6 comdat {
  %2 = alloca float, align 4
  store float %0, ptr %2, align 4, !tbaa !14
  %3 = load float, ptr %2, align 4, !tbaa !14
  %4 = call float @log2f(float noundef %3) #3, !tbaa !141
  ret float %4
}

; Function Attrs: mustprogress uwtable
define hidden void @_ZN19OpenColorIO_v2_5dev15L2LBaseRenderer10updateDataERSt10shared_ptrIKNS_9LogOpDataEE(ptr noundef nonnull align 8 dereferenceable(88) %0, ptr noundef nonnull align 8 dereferenceable(16) %1) unnamed_addr #4 align 2 {
  %3 = alloca ptr, align 8
  %4 = alloca ptr, align 8
  store ptr %0, ptr %3, align 8, !tbaa !107
  store ptr %1, ptr %4, align 8, !tbaa !3
  %5 = load ptr, ptr %3, align 8
  %6 = load ptr, ptr %4, align 8, !tbaa !3
  call void @_ZN19OpenColorIO_v2_5dev8LogOpCPU10updateDataERSt10shared_ptrIKNS_9LogOpDataEE(ptr noundef nonnull align 8 dereferenceable(8) %5, ptr noundef nonnull align 8 dereferenceable(16) %6)
  %7 = load ptr, ptr %4, align 8, !tbaa !3
  %8 = call noundef ptr @_ZNKSt19__shared_ptr_accessIKN19OpenColorIO_v2_5dev9LogOpDataELN9__gnu_cxx12_Lock_policyE2ELb0ELb0EEptEv(ptr noundef nonnull align 1 dereferenceable(1) %7) #3
  %9 = call noundef double @_ZNK19OpenColorIO_v2_5dev9LogOpData7getBaseEv(ptr noundef nonnull align 8 dereferenceable(252) %8) #3
  %10 = fptrunc double %9 to float
  %11 = getelementptr inbounds nuw %"class.OpenColorIO_v2_5dev::L2LBaseRenderer", ptr %5, i32 0, i32 1
  store float %10, ptr %11, align 8, !tbaa !109
  %12 = load ptr, ptr %4, align 8, !tbaa !3
  %13 = call noundef ptr @_ZNKSt19__shared_ptr_accessIKN19OpenColorIO_v2_5dev9LogOpDataELN9__gnu_cxx12_Lock_policyE2ELb0ELb0EEptEv(ptr noundef nonnull align 1 dereferenceable(1) %12) #3
  %14 = call noundef nonnull align 8 dereferenceable(24) ptr @_ZNK19OpenColorIO_v2_5dev9LogOpData12getRedParamsEv(ptr noundef nonnull align 8 dereferenceable(252) %13)
  %15 = getelementptr inbounds nuw %"class.OpenColorIO_v2_5dev::L2LBaseRenderer", ptr %5, i32 0, i32 2
  %16 = call noundef nonnull align 8 dereferenceable(24) ptr @_ZNSt6vectorIdSaIdEEaSERKS1_(ptr noundef nonnull align 8 dereferenceable(24) %15, ptr noundef nonnull align 8 dereferenceable(24) %14)
  %17 = load ptr, ptr %4, align 8, !tbaa !3
  %18 = call noundef ptr @_ZNKSt19__shared_ptr_accessIKN19OpenColorIO_v2_5dev9LogOpDataELN9__gnu_cxx12_Lock_policyE2ELb0ELb0EEptEv(ptr noundef nonnull align 1 dereferenceable(1) %17) #3
  %19 = call noundef nonnull align 8 dereferenceable(24) ptr @_ZNK19OpenColorIO_v2_5dev9LogOpData14getGreenParamsEv(ptr noundef nonnull align 8 dereferenceable(252) %18)
  %20 = getelementptr inbounds nuw %"class.OpenColorIO_v2_5dev::L2LBaseRenderer", ptr %5, i32 0, i32 3
  %21 = call noundef nonnull align 8 dereferenceable(24) ptr @_ZNSt6vectorIdSaIdEEaSERKS1_(ptr noundef nonnull align 8 dereferenceable(24) %20, ptr noundef nonnull align 8 dereferenceable(24) %19)
  %22 = load ptr, ptr %4, align 8, !tbaa !3
  %23 = call noundef ptr @_ZNKSt19__shared_ptr_accessIKN19OpenColorIO_v2_5dev9LogOpDataELN9__gnu_cxx12_Lock_policyE2ELb0ELb0EEptEv(ptr noundef nonnull align 1 dereferenceable(1) %22) #3
  %24 = call noundef nonnull align 8 dereferenceable(24) ptr @_ZNK19OpenColorIO_v2_5dev9LogOpData13getBlueParamsEv(ptr noundef nonnull align 8 dereferenceable(252) %23)
  %25 = getelementptr inbounds nuw %"class.OpenColorIO_v2_5dev::L2LBaseRenderer", ptr %5, i32 0, i32 4
  %26 = call noundef nonnull align 8 dereferenceable(24) ptr @_ZNSt6vectorIdSaIdEEaSERKS1_(ptr noundef nonnull align 8 dereferenceable(24) %25, ptr noundef nonnull align 8 dereferenceable(24) %24)
  ret void
}

; Function Attrs: mustprogress uwtable
define hidden void @_ZN19OpenColorIO_v2_5dev21CameraL2LBaseRenderer10updateDataERSt10shared_ptrIKNS_9LogOpDataEE(ptr noundef nonnull align 8 dereferenceable(128) %0, ptr noundef nonnull align 8 dereferenceable(16) %1) unnamed_addr #4 align 2 {
  %3 = alloca ptr, align 8
  %4 = alloca ptr, align 8
  store ptr %0, ptr %3, align 8, !tbaa !154
  store ptr %1, ptr %4, align 8, !tbaa !3
  %5 = load ptr, ptr %3, align 8
  %6 = load ptr, ptr %4, align 8, !tbaa !3
  call void @_ZN19OpenColorIO_v2_5dev15L2LBaseRenderer10updateDataERSt10shared_ptrIKNS_9LogOpDataEE(ptr noundef nonnull align 8 dereferenceable(88) %5, ptr noundef nonnull align 8 dereferenceable(16) %6)
  %7 = getelementptr inbounds nuw %"class.OpenColorIO_v2_5dev::L2LBaseRenderer", ptr %5, i32 0, i32 2
  %8 = getelementptr inbounds nuw %"class.OpenColorIO_v2_5dev::L2LBaseRenderer", ptr %5, i32 0, i32 1
  %9 = load float, ptr %8, align 8, !tbaa !109
  %10 = fpext float %9 to double
  %11 = call noundef float @_ZN19OpenColorIO_v2_5dev7LogUtil14GetLinearSlopeERKSt6vectorIdSaIdEEd(ptr noundef nonnull align 8 dereferenceable(24) %7, double noundef %10)
  %12 = getelementptr inbounds nuw %"class.OpenColorIO_v2_5dev::CameraL2LBaseRenderer", ptr %5, i32 0, i32 2
  %13 = getelementptr inbounds [3 x float], ptr %12, i64 0, i64 0
  store float %11, ptr %13, align 4, !tbaa !14
  %14 = getelementptr inbounds nuw %"class.OpenColorIO_v2_5dev::L2LBaseRenderer", ptr %5, i32 0, i32 3
  %15 = getelementptr inbounds nuw %"class.OpenColorIO_v2_5dev::L2LBaseRenderer", ptr %5, i32 0, i32 1
  %16 = load float, ptr %15, align 8, !tbaa !109
  %17 = fpext float %16 to double
  %18 = call noundef float @_ZN19OpenColorIO_v2_5dev7LogUtil14GetLinearSlopeERKSt6vectorIdSaIdEEd(ptr noundef nonnull align 8 dereferenceable(24) %14, double noundef %17)
  %19 = getelementptr inbounds nuw %"class.OpenColorIO_v2_5dev::CameraL2LBaseRenderer", ptr %5, i32 0, i32 2
  %20 = getelementptr inbounds [3 x float], ptr %19, i64 0, i64 1
  store float %18, ptr %20, align 4, !tbaa !14
  %21 = getelementptr inbounds nuw %"class.OpenColorIO_v2_5dev::L2LBaseRenderer", ptr %5, i32 0, i32 4
  %22 = getelementptr inbounds nuw %"class.OpenColorIO_v2_5dev::L2LBaseRenderer", ptr %5, i32 0, i32 1
  %23 = load float, ptr %22, align 8, !tbaa !109
  %24 = fpext float %23 to double
  %25 = call noundef float @_ZN19OpenColorIO_v2_5dev7LogUtil14GetLinearSlopeERKSt6vectorIdSaIdEEd(ptr noundef nonnull align 8 dereferenceable(24) %21, double noundef %24)
  %26 = getelementptr inbounds nuw %"class.OpenColorIO_v2_5dev::CameraL2LBaseRenderer", ptr %5, i32 0, i32 2
  %27 = getelementptr inbounds [3 x float], ptr %26, i64 0, i64 2
  store float %25, ptr %27, align 4, !tbaa !14
  %28 = getelementptr inbounds nuw %"class.OpenColorIO_v2_5dev::L2LBaseRenderer", ptr %5, i32 0, i32 2
  %29 = getelementptr inbounds nuw %"class.OpenColorIO_v2_5dev::L2LBaseRenderer", ptr %5, i32 0, i32 1
  %30 = load float, ptr %29, align 8, !tbaa !109
  %31 = fpext float %30 to double
  %32 = call noundef float @_ZN19OpenColorIO_v2_5dev7LogUtil15GetLogSideBreakERKSt6vectorIdSaIdEEd(ptr noundef nonnull align 8 dereferenceable(24) %28, double noundef %31)
  %33 = getelementptr inbounds nuw %"class.OpenColorIO_v2_5dev::CameraL2LBaseRenderer", ptr %5, i32 0, i32 1
  %34 = getelementptr inbounds [3 x float], ptr %33, i64 0, i64 0
  store float %32, ptr %34, align 8, !tbaa !14
  %35 = getelementptr inbounds nuw %"class.OpenColorIO_v2_5dev::L2LBaseRenderer", ptr %5, i32 0, i32 3
  %36 = getelementptr inbounds nuw %"class.OpenColorIO_v2_5dev::L2LBaseRenderer", ptr %5, i32 0, i32 1
  %37 = load float, ptr %36, align 8, !tbaa !109
  %38 = fpext float %37 to double
  %39 = call noundef float @_ZN19OpenColorIO_v2_5dev7LogUtil15GetLogSideBreakERKSt6vectorIdSaIdEEd(ptr noundef nonnull align 8 dereferenceable(24) %35, double noundef %38)
  %40 = getelementptr inbounds nuw %"class.OpenColorIO_v2_5dev::CameraL2LBaseRenderer", ptr %5, i32 0, i32 1
  %41 = getelementptr inbounds [3 x float], ptr %40, i64 0, i64 1
  store float %39, ptr %41, align 4, !tbaa !14
  %42 = getelementptr inbounds nuw %"class.OpenColorIO_v2_5dev::L2LBaseRenderer", ptr %5, i32 0, i32 4
  %43 = getelementptr inbounds nuw %"class.OpenColorIO_v2_5dev::L2LBaseRenderer", ptr %5, i32 0, i32 1
  %44 = load float, ptr %43, align 8, !tbaa !109
  %45 = fpext float %44 to double
  %46 = call noundef float @_ZN19OpenColorIO_v2_5dev7LogUtil15GetLogSideBreakERKSt6vectorIdSaIdEEd(ptr noundef nonnull align 8 dereferenceable(24) %42, double noundef %45)
  %47 = getelementptr inbounds nuw %"class.OpenColorIO_v2_5dev::CameraL2LBaseRenderer", ptr %5, i32 0, i32 1
  %48 = getelementptr inbounds [3 x float], ptr %47, i64 0, i64 2
  store float %46, ptr %48, align 8, !tbaa !14
  %49 = getelementptr inbounds nuw %"class.OpenColorIO_v2_5dev::L2LBaseRenderer", ptr %5, i32 0, i32 2
  %50 = getelementptr inbounds nuw %"class.OpenColorIO_v2_5dev::CameraL2LBaseRenderer", ptr %5, i32 0, i32 2
  %51 = getelementptr inbounds [3 x float], ptr %50, i64 0, i64 0
  %52 = load float, ptr %51, align 4, !tbaa !14
  %53 = getelementptr inbounds nuw %"class.OpenColorIO_v2_5dev::CameraL2LBaseRenderer", ptr %5, i32 0, i32 1
  %54 = getelementptr inbounds [3 x float], ptr %53, i64 0, i64 0
  %55 = load float, ptr %54, align 8, !tbaa !14
  %56 = call noundef float @_ZN19OpenColorIO_v2_5dev7LogUtil15GetLinearOffsetERKSt6vectorIdSaIdEEff(ptr noundef nonnull align 8 dereferenceable(24) %49, float noundef %52, float noundef %55)
  %57 = getelementptr inbounds nuw %"class.OpenColorIO_v2_5dev::CameraL2LBaseRenderer", ptr %5, i32 0, i32 3
  %58 = getelementptr inbounds [3 x float], ptr %57, i64 0, i64 0
  store float %56, ptr %58, align 8, !tbaa !14
  %59 = getelementptr inbounds nuw %"class.OpenColorIO_v2_5dev::L2LBaseRenderer", ptr %5, i32 0, i32 3
  %60 = getelementptr inbounds nuw %"class.OpenColorIO_v2_5dev::CameraL2LBaseRenderer", ptr %5, i32 0, i32 2
  %61 = getelementptr inbounds [3 x float], ptr %60, i64 0, i64 1
  %62 = load float, ptr %61, align 4, !tbaa !14
  %63 = getelementptr inbounds nuw %"class.OpenColorIO_v2_5dev::CameraL2LBaseRenderer", ptr %5, i32 0, i32 1
  %64 = getelementptr inbounds [3 x float], ptr %63, i64 0, i64 1
  %65 = load float, ptr %64, align 4, !tbaa !14
  %66 = call noundef float @_ZN19OpenColorIO_v2_5dev7LogUtil15GetLinearOffsetERKSt6vectorIdSaIdEEff(ptr noundef nonnull align 8 dereferenceable(24) %59, float noundef %62, float noundef %65)
  %67 = getelementptr inbounds nuw %"class.OpenColorIO_v2_5dev::CameraL2LBaseRenderer", ptr %5, i32 0, i32 3
  %68 = getelementptr inbounds [3 x float], ptr %67, i64 0, i64 1
  store float %66, ptr %68, align 4, !tbaa !14
  %69 = getelementptr inbounds nuw %"class.OpenColorIO_v2_5dev::L2LBaseRenderer", ptr %5, i32 0, i32 4
  %70 = getelementptr inbounds nuw %"class.OpenColorIO_v2_5dev::CameraL2LBaseRenderer", ptr %5, i32 0, i32 2
  %71 = getelementptr inbounds [3 x float], ptr %70, i64 0, i64 2
  %72 = load float, ptr %71, align 4, !tbaa !14
  %73 = getelementptr inbounds nuw %"class.OpenColorIO_v2_5dev::CameraL2LBaseRenderer", ptr %5, i32 0, i32 1
  %74 = getelementptr inbounds [3 x float], ptr %73, i64 0, i64 2
  %75 = load float, ptr %74, align 8, !tbaa !14
  %76 = call noundef float @_ZN19OpenColorIO_v2_5dev7LogUtil15GetLinearOffsetERKSt6vectorIdSaIdEEff(ptr noundef nonnull align 8 dereferenceable(24) %69, float noundef %72, float noundef %75)
  %77 = getelementptr inbounds nuw %"class.OpenColorIO_v2_5dev::CameraL2LBaseRenderer", ptr %5, i32 0, i32 3
  %78 = getelementptr inbounds [3 x float], ptr %77, i64 0, i64 2
  store float %76, ptr %78, align 8, !tbaa !14
  %79 = getelementptr inbounds nuw %"class.OpenColorIO_v2_5dev::L2LBaseRenderer", ptr %5, i32 0, i32 1
  %80 = load float, ptr %79, align 8, !tbaa !109
  %81 = call noundef float @_ZSt4log2f(float noundef %80)
  %82 = getelementptr inbounds nuw %"class.OpenColorIO_v2_5dev::CameraL2LBaseRenderer", ptr %5, i32 0, i32 4
  store float %81, ptr %82, align 4, !tbaa !156
  ret void
}