; Function Attrs: mustprogress uwtable
define hidden void @_ZN19OpenColorIO_v2_5dev21CameraL2LBaseRenderer10updateDataERSt10shared_ptrIKNS_9LogOpDataEE(ptr noundef nonnull align 8 dereferenceable(128) initializes((8, 12)) %0, ptr noundef nonnull readonly align 8 captures(none) dereferenceable(16) %1) unnamed_addr #3 align 2 {
  %3 = load ptr, ptr %1, align 8, !tbaa !3
  %4 = tail call noundef double @_ZNK19OpenColorIO_v2_5dev9LogOpData7getBaseEv(ptr noundef nonnull align 8 dereferenceable(252) %3) #26
  %5 = fptrunc double %4 to float
  %6 = getelementptr inbounds nuw i8, ptr %0, i64 8
  store float %5, ptr %6, align 8, !tbaa !96
  %7 = load ptr, ptr %1, align 8, !tbaa !3
  %8 = getelementptr inbounds nuw i8, ptr %7, i64 168
  %9 = getelementptr inbounds nuw i8, ptr %0, i64 16
  %10 = tail call noundef nonnull align 8 dereferenceable(24) ptr @_ZNSt6vectorIdSaIdEEaSERKS1_(ptr noundef nonnull align 8 dereferenceable(24) %9, ptr noundef nonnull align 8 dereferenceable(24) %8)
  %11 = load ptr, ptr %1, align 8, !tbaa !3
  %12 = getelementptr inbounds nuw i8, ptr %11, i64 192
  %13 = getelementptr inbounds nuw i8, ptr %0, i64 40
  %14 = tail call noundef nonnull align 8 dereferenceable(24) ptr @_ZNSt6vectorIdSaIdEEaSERKS1_(ptr noundef nonnull align 8 dereferenceable(24) %13, ptr noundef nonnull align 8 dereferenceable(24) %12)
  %15 = load ptr, ptr %1, align 8, !tbaa !3
  %16 = getelementptr inbounds nuw i8, ptr %15, i64 216
  %17 = getelementptr inbounds nuw i8, ptr %0, i64 64
  %18 = tail call noundef nonnull align 8 dereferenceable(24) ptr @_ZNSt6vectorIdSaIdEEaSERKS1_(ptr noundef nonnull align 8 dereferenceable(24) %17, ptr noundef nonnull align 8 dereferenceable(24) %16)
  %19 = load float, ptr %6, align 8, !tbaa !96
  %20 = fpext float %19 to double
  %21 = tail call noundef float @_ZN19OpenColorIO_v2_5dev7LogUtil14GetLinearSlopeERKSt6vectorIdSaIdEEd(ptr noundef nonnull align 8 dereferenceable(24) %9, double noundef %20)
  %22 = getelementptr inbounds nuw i8, ptr %0, i64 100
  store float %21, ptr %22, align 4, !tbaa !111
  %23 = load float, ptr %6, align 8, !tbaa !96
  %24 = fpext float %23 to double
  %25 = tail call noundef float @_ZN19OpenColorIO_v2_5dev7LogUtil14GetLinearSlopeERKSt6vectorIdSaIdEEd(ptr noundef nonnull align 8 dereferenceable(24) %13, double noundef %24)
  %26 = getelementptr inbounds nuw i8, ptr %0, i64 104
  store float %25, ptr %26, align 8, !tbaa !111
  %27 = load float, ptr %6, align 8, !tbaa !96
  %28 = fpext float %27 to double
  %29 = tail call noundef float @_ZN19OpenColorIO_v2_5dev7LogUtil14GetLinearSlopeERKSt6vectorIdSaIdEEd(ptr noundef nonnull align 8 dereferenceable(24) %17, double noundef %28)
  %30 = getelementptr inbounds nuw i8, ptr %0, i64 108
  store float %29, ptr %30, align 4, !tbaa !111
  %31 = load float, ptr %6, align 8, !tbaa !96
  %32 = fpext float %31 to double
  %33 = tail call noundef float @_ZN19OpenColorIO_v2_5dev7LogUtil15GetLogSideBreakERKSt6vectorIdSaIdEEd(ptr noundef nonnull align 8 dereferenceable(24) %9, double noundef %32)
  %34 = getelementptr inbounds nuw i8, ptr %0, i64 88
  store float %33, ptr %34, align 8, !tbaa !111
  %35 = load float, ptr %6, align 8, !tbaa !96
  %36 = fpext float %35 to double
  %37 = tail call noundef float @_ZN19OpenColorIO_v2_5dev7LogUtil15GetLogSideBreakERKSt6vectorIdSaIdEEd(ptr noundef nonnull align 8 dereferenceable(24) %13, double noundef %36)
  %38 = getelementptr inbounds nuw i8, ptr %0, i64 92
  store float %37, ptr %38, align 4, !tbaa !111
  %39 = load float, ptr %6, align 8, !tbaa !96
  %40 = fpext float %39 to double
  %41 = tail call noundef float @_ZN19OpenColorIO_v2_5dev7LogUtil15GetLogSideBreakERKSt6vectorIdSaIdEEd(ptr noundef nonnull align 8 dereferenceable(24) %17, double noundef %40)
  %42 = getelementptr inbounds nuw i8, ptr %0, i64 96
  store float %41, ptr %42, align 8, !tbaa !111
  %43 = load float, ptr %22, align 4, !tbaa !111
  %44 = load float, ptr %34, align 8, !tbaa !111
  %45 = tail call noundef float @_ZN19OpenColorIO_v2_5dev7LogUtil15GetLinearOffsetERKSt6vectorIdSaIdEEff(ptr noundef nonnull align 8 dereferenceable(24) %9, float noundef %43, float noundef %44)
  %46 = getelementptr inbounds nuw i8, ptr %0, i64 112
  store float %45, ptr %46, align 8, !tbaa !111
  %47 = load float, ptr %26, align 8, !tbaa !111
  %48 = load float, ptr %38, align 4, !tbaa !111
  %49 = tail call noundef float @_ZN19OpenColorIO_v2_5dev7LogUtil15GetLinearOffsetERKSt6vectorIdSaIdEEff(ptr noundef nonnull align 8 dereferenceable(24) %13, float noundef %47, float noundef %48)
  %50 = getelementptr inbounds nuw i8, ptr %0, i64 116
  store float %49, ptr %50, align 4, !tbaa !111
  %51 = load float, ptr %30, align 4, !tbaa !111
  %52 = load float, ptr %42, align 8, !tbaa !111
  %53 = tail call noundef float @_ZN19OpenColorIO_v2_5dev7LogUtil15GetLinearOffsetERKSt6vectorIdSaIdEEff(ptr noundef nonnull align 8 dereferenceable(24) %17, float noundef %51, float noundef %52)
  %54 = getelementptr inbounds nuw i8, ptr %0, i64 120
  store float %53, ptr %54, align 8, !tbaa !111
  %55 = load float, ptr %6, align 8, !tbaa !96
  %56 = tail call noundef float @log2f(float noundef %55) #26, !tbaa !112
  %57 = getelementptr inbounds nuw i8, ptr %0, i64 124
  store float %56, ptr %57, align 4, !tbaa !124
  ret void
}